; Function Attrs: mustprogress uwtable
define internal void @_ZN5arrow7compute8internal12_GLOBAL__N_114NullHashKernelINS2_17ValueCountsActionELb1EE6AppendERKNS_9ArraySpanE(ptr dead_on_unwind noalias writable writeonly sret(%"class.arrow::Status") align 8 captures(none) initializes((0, 8)) %0, ptr noundef nonnull align 8 dereferenceable(328) %1, ptr noundef nonnull readonly align 8 captures(none) dereferenceable(128) %2) unnamed_addr #2 align 2 personality ptr @__gxx_personality_v0 {
  %4 = alloca %"class.arrow::Status", align 8
  tail call void @llvm.experimental.noalias.scope.decl(metadata !2946)
  call void @llvm.lifetime.start.p0(i64 8, ptr nonnull %4) #33, !noalias !2946
  store ptr null, ptr %4, align 8, !tbaa !131, !alias.scope !2949, !noalias !2946
  %5 = getelementptr inbounds nuw i8, ptr %1, i64 88
  %6 = getelementptr inbounds nuw i8, ptr %2, i64 8
  store ptr null, ptr %0, align 8, !tbaa !131, !alias.scope !2952
  %7 = load i64, ptr %6, align 8, !tbaa !786, !noalias !2946
  %8 = icmp sgt i64 %7, 0
  br i1 %8, label %.lr.ph.i, label %_ZN5arrow7compute8internal12_GLOBAL__N_114NullHashKernelINS2_17ValueCountsActionELb1EE8DoAppendILb1EEENSt9enable_ifIXT_ENS_6StatusEE4typeERKNS_9ArraySpanE.exit

.lr.ph.i:                                         ; preds = %3
  %9 = getelementptr inbounds nuw i8, ptr %1, i64 80
  %10 = getelementptr inbounds nuw i8, ptr %1, i64 296
  br label %11

11:                                               ; preds = %27, %.lr.ph.i
  %.018.i = phi i64 [ 0, %.lr.ph.i ], [ %28, %27 ]
  %12 = load i8, ptr %9, align 8, !tbaa !2739, !range !141, !noalias !2946, !noundef !142
  %13 = icmp eq i8 %12, 0
  %14 = icmp eq i64 %.018.i, 0
  %or.cond.i = and i1 %14, %13
  br i1 %or.cond.i, label %15, label %24

15:                                               ; preds = %11
  store i8 1, ptr %9, align 8, !tbaa !2739, !noalias !2946
  invoke fastcc void @_ZN5arrow7compute8internal12_GLOBAL__N_117ValueCountsAction19ObserveNullNotFoundIiEEvT_PNS_6StatusE(ptr noundef nonnull align 8 dereferenceable(240) %5, ptr noundef nonnull %4)
          to label %27 unwind label %16

16:                                               ; preds = %15
  %17 = landingpad { ptr, i32 }
          cleanup
  %18 = load ptr, ptr %4, align 8, !tbaa !131, !noalias !2946
  %.not.i14.i = icmp eq ptr %18, null
  br i1 %.not.i14.i, label %_ZN5arrow6StatusD2Ev.exit15.i, label %19, !prof !134

19:                                               ; preds = %16
  %20 = getelementptr inbounds nuw i8, ptr %18, i64 1
  %21 = load i8, ptr %20, align 1, !tbaa !135, !range !141, !noalias !2946, !noundef !142
  %22 = trunc nuw i8 %21 to i1
  br i1 %22, label %_ZN5arrow6StatusD2Ev.exit15.i, label %23

23:                                               ; preds = %19
  call void @_ZN5arrow6Status11DeleteStateEv(ptr noundef nonnull align 8 dereferenceable(8) %4) #33, !noalias !2946
  br label %_ZN5arrow6StatusD2Ev.exit15.i

_ZN5arrow6StatusD2Ev.exit15.i:                    ; preds = %23, %19, %16
  call void @llvm.lifetime.end.p0(i64 8, ptr nonnull %4) #33, !noalias !2946
  resume { ptr, i32 } %17

24:                                               ; preds = %11
  %.val.i = load ptr, ptr %10, align 8, !tbaa !899, !noalias !2946
  %25 = load i64, ptr %.val.i, align 8, !tbaa !36, !noalias !2946
  %26 = add nsw i64 %25, 1
  store i64 %26, ptr %.val.i, align 8, !tbaa !36, !noalias !2946
  br label %27

27:                                               ; preds = %15, %24
  %28 = add nuw nsw i64 %.018.i, 1
  %29 = load i64, ptr %6, align 8, !tbaa !786, !noalias !2946
  %30 = icmp slt i64 %28, %29
  br i1 %30, label %11, label %.critedge.loopexit.i, !llvm.loop !2955

.critedge.loopexit.i:                             ; preds = %27
  %.pre.i = load ptr, ptr %4, align 8, !tbaa !131, !noalias !2946
  br label %_ZN5arrow7compute8internal12_GLOBAL__N_114NullHashKernelINS2_17ValueCountsActionELb1EE8DoAppendILb1EEENSt9enable_ifIXT_ENS_6StatusEE4typeERKNS_9ArraySpanE.exit

_ZN5arrow7compute8internal12_GLOBAL__N_114NullHashKernelINS2_17ValueCountsActionELb1EE8DoAppendILb1EEENSt9enable_ifIXT_ENS_6StatusEE4typeERKNS_9ArraySpanE.exit: ; preds = %3, %.critedge.loopexit.i
  %31 = phi ptr [ %.pre.i, %.critedge.loopexit.i ], [ null, %3 ]
  store ptr %31, ptr %0, align 8, !tbaa !131, !alias.scope !2946
  call void @llvm.lifetime.end.p0(i64 8, ptr nonnull %4) #33, !noalias !2946
  ret void
}